target datalayout = "e-m:e-p270:32:32-p271:32:32-p272:64:64-i64:64-i128:128-f80:128-n8:16:32:64-S128"
target triple = "x86_64-pc-linux-gnu"

%"class.fmt::v11::basic_string_view" = type { ptr, i64 }
%"class.std::chrono::time_point" = type { %"class.std::chrono::duration" }
%"class.std::chrono::duration" = type { i64 }
%"class.fmt::v11::basic_memory_buffer" = type <{ %"class.fmt::v11::detail::buffer", [250 x i8], [6 x i8] }>
%"class.fmt::v11::detail::buffer" = type { ptr, i64, i64, ptr }
%"class.spdlog::details::log_msg_buffer" = type { %"struct.spdlog::details::log_msg", %"class.fmt::v11::basic_memory_buffer" }
%"struct.spdlog::details::log_msg" = type { %"class.fmt::v11::basic_string_view", i32, %"class.std::chrono::time_point", i64, i64, i64, %"struct.spdlog::source_loc", %"class.fmt::v11::basic_string_view" }
%"struct.spdlog::source_loc" = type { ptr, i32, ptr }

@.str.5 = private unnamed_addr constant [1 x i8] zeroinitializer, align 1

; Function Attrs: mustprogress nounwind uwtable
define linkonce_odr dso_local noundef i64 @_ZN3fmt3v116min_ofImEET_S2_S2_(i64 noundef %0, i64 noundef %1) #0 comdat {
  %3 = alloca i64, align 8
  %4 = alloca i64, align 8
  store i64 %0, ptr %3, align 8, !tbaa !28
  store i64 %1, ptr %4, align 8, !tbaa !28
  %5 = load i64, ptr %3, align 8, !tbaa !28
  %6 = load i64, ptr %4, align 8, !tbaa !28
  %7 = icmp ult i64 %5, %6
  br i1 %7, label %8, label %10

8:                                                ; preds = %2
  %9 = load i64, ptr %3, align 8, !tbaa !28
  br label %12

10:                                               ; preds = %2
  %11 = load i64, ptr %4, align 8, !tbaa !28
  br label %12

12:                                               ; preds = %10, %8
  %13 = phi i64 [ %9, %8 ], [ %11, %10 ]
  ret i64 %13
}

; Function Attrs: mustprogress uwtable
define linkonce_odr dso_local void @_ZN3fmt3v116detail6bufferIcE11try_reserveEm(ptr noundef nonnull align 8 dereferenceable(32) %0, i64 noundef %1) #5 comdat align 2 {
  %3 = alloca ptr, align 8
  %4 = alloca i64, align 8
  store ptr %0, ptr %3, align 8, !tbaa !87
  store i64 %1, ptr %4, align 8, !tbaa !28
  %5 = load ptr, ptr %3, align 8
  %6 = load i64, ptr %4, align 8, !tbaa !28
  %7 = getelementptr inbounds nuw %"class.fmt::v11::detail::buffer", ptr %5, i32 0, i32 2
  %8 = load i64, ptr %7, align 8, !tbaa !91
  %9 = icmp ugt i64 %6, %8
  br i1 %9, label %10, label %14

10:                                               ; preds = %2
  %11 = getelementptr inbounds nuw %"class.fmt::v11::detail::buffer", ptr %5, i32 0, i32 3
  %12 = load ptr, ptr %11, align 8, !tbaa !655
  %13 = load i64, ptr %4, align 8, !tbaa !28
  call void %12(ptr noundef nonnull align 8 dereferenceable(32) %5, i64 noundef %13)
  br label %14

14:                                               ; preds = %10, %2
  ret void
}

; Function Attrs: mustprogress uwtable
define linkonce_odr dso_local void @_ZN3fmt3v116detail6bufferIcE10try_resizeEm(ptr noundef nonnull align 8 dereferenceable(32) %0, i64 noundef %1) #5 comdat align 2 {
  %3 = alloca ptr, align 8
  %4 = alloca i64, align 8
  store ptr %0, ptr %3, align 8, !tbaa !87
  store i64 %1, ptr %4, align 8, !tbaa !28
  %5 = load ptr, ptr %3, align 8
  %6 = load i64, ptr %4, align 8, !tbaa !28
  call void @_ZN3fmt3v116detail6bufferIcE11try_reserveEm(ptr noundef nonnull align 8 dereferenceable(32) %5, i64 noundef %6)
  %7 = load i64, ptr %4, align 8, !tbaa !28
  %8 = getelementptr inbounds nuw %"class.fmt::v11::detail::buffer", ptr %5, i32 0, i32 2
  %9 = load i64, ptr %8, align 8, !tbaa !91
  %10 = call noundef i64 @_ZN3fmt3v116min_ofImEET_S2_S2_(i64 noundef %7, i64 noundef %9)
  %11 = getelementptr inbounds nuw %"class.fmt::v11::detail::buffer", ptr %5, i32 0, i32 1
  store i64 %10, ptr %11, align 8, !tbaa !89
  ret void
}

; Function Attrs: mustprogress uwtable
define linkonce_odr dso_local void @_ZN3fmt3v1119basic_memory_bufferIcLm250ENS0_6detail9allocatorIcEEE6resizeEm(ptr noundef nonnull align 8 dereferenceable(283) %0, i64 noundef %1) #5 comdat align 2 {
  %3 = alloca ptr, align 8
  %4 = alloca i64, align 8
  store ptr %0, ptr %3, align 8, !tbaa !24
  store i64 %1, ptr %4, align 8, !tbaa !28
  %5 = load ptr, ptr %3, align 8
  %6 = load i64, ptr %4, align 8, !tbaa !28
  call void @_ZN3fmt3v116detail6bufferIcE10try_resizeEm(ptr noundef nonnull align 8 dereferenceable(32) %5, i64 noundef %6)
  ret void
}

; Function Attrs: mustprogress nounwind uwtable
define linkonce_odr dso_local void @_ZN3fmt3v116detail6bufferIcE5clearEv(ptr noundef nonnull align 8 dereferenceable(32) %0) #0 comdat align 2 {
  %2 = alloca ptr, align 8
  store ptr %0, ptr %2, align 8, !tbaa !87
  %3 = load ptr, ptr %2, align 8
  %4 = getelementptr inbounds nuw %"class.fmt::v11::detail::buffer", ptr %3, i32 0, i32 1
  store i64 0, ptr %4, align 8, !tbaa !89
  ret void
}

; Function Attrs: mustprogress nounwind uwtable
define linkonce_odr dso_local noundef ptr @_ZN3fmt3v116detail4copyIcPcS3_TnNSt9enable_ifIXntsr23is_back_insert_iteratorIT1_EE5valueEiE4typeELi0EEES5_T0_S8_S5_(ptr noundef %0, ptr noundef %1, ptr noundef %2) #0 comdat {
  %4 = alloca ptr, align 8
  %5 = alloca ptr, align 8
  %6 = alloca ptr, align 8
  store ptr %0, ptr %4, align 8, !tbaa !8
  store ptr %1, ptr %5, align 8, !tbaa !8
  store ptr %2, ptr %6, align 8, !tbaa !8
  br label %7

7:                                                ; preds = %11, %3
  %8 = load ptr, ptr %4, align 8, !tbaa !8
  %9 = load ptr, ptr %5, align 8, !tbaa !8
  %10 = icmp ne ptr %8, %9
  br i1 %10, label %11, label %17

11:                                               ; preds = %7
  %12 = load ptr, ptr %4, align 8, !tbaa !8
  %13 = getelementptr inbounds nuw i8, ptr %12, i32 1
  store ptr %13, ptr %4, align 8, !tbaa !8
  %14 = load i8, ptr %12, align 1, !tbaa !21
  %15 = load ptr, ptr %6, align 8, !tbaa !8
  %16 = getelementptr inbounds nuw i8, ptr %15, i32 1
  store ptr %16, ptr %6, align 8, !tbaa !8
  store i8 %14, ptr %15, align 1, !tbaa !21
  br label %7, !llvm.loop !667

17:                                               ; preds = %7
  %18 = load ptr, ptr %6, align 8, !tbaa !8
  ret ptr %18
}

; Function Attrs: mustprogress nounwind uwtable
define linkonce_odr dso_local void @_ZN3fmt3v116detail6bufferIcE3setEPcm(ptr noundef nonnull align 8 dereferenceable(32) %0, ptr noundef %1, i64 noundef %2) #0 comdat align 2 {
  %4 = alloca ptr, align 8
  %5 = alloca ptr, align 8
  %6 = alloca i64, align 8
  store ptr %0, ptr %4, align 8, !tbaa !87
  store ptr %1, ptr %5, align 8, !tbaa !8
  store i64 %2, ptr %6, align 8, !tbaa !28
  %7 = load ptr, ptr %4, align 8
  %8 = load ptr, ptr %5, align 8, !tbaa !8
  %9 = getelementptr inbounds nuw %"class.fmt::v11::detail::buffer", ptr %7, i32 0, i32 0
  store ptr %8, ptr %9, align 8, !tbaa !92
  %10 = load i64, ptr %6, align 8, !tbaa !28
  %11 = getelementptr inbounds nuw %"class.fmt::v11::detail::buffer", ptr %7, i32 0, i32 2
  store i64 %10, ptr %11, align 8, !tbaa !91
  ret void
}

; Function Attrs: mustprogress nounwind uwtable
define linkonce_odr dso_local noundef i64 @_ZNK3fmt3v116detail6bufferIcE4sizeEv(ptr noundef nonnull align 8 dereferenceable(32) %0) #0 comdat align 2 {
  %2 = alloca ptr, align 8
  store ptr %0, ptr %2, align 8, !tbaa !87
  %3 = load ptr, ptr %2, align 8
  %4 = getelementptr inbounds nuw %"class.fmt::v11::detail::buffer", ptr %3, i32 0, i32 1
  %5 = load i64, ptr %4, align 8, !tbaa !89
  ret i64 %5
}

; Function Attrs: mustprogress nounwind uwtable
define linkonce_odr dso_local void @_ZN3fmt3v116detail9allocatorIcE10deallocateEPcm(ptr noundef nonnull align 1 dereferenceable(1) %0, ptr noundef %1, i64 noundef %2) #0 comdat align 2 {
  %4 = alloca ptr, align 8
  %5 = alloca ptr, align 8
  %6 = alloca i64, align 8
  store ptr %0, ptr %4, align 8, !tbaa !26
  store ptr %1, ptr %5, align 8, !tbaa !8
  store i64 %2, ptr %6, align 8, !tbaa !28
  %7 = load ptr, ptr %5, align 8, !tbaa !8
  call void @free(ptr noundef %7) #13
  ret void
}

; Function Attrs: mustprogress nounwind uwtable
define linkonce_odr dso_local noundef i64 @_ZNK3fmt3v116detail6bufferIcE8capacityEv(ptr noundef nonnull align 8 dereferenceable(32) %0) #0 comdat align 2 {
  %2 = alloca ptr, align 8
  store ptr %0, ptr %2, align 8, !tbaa !87
  %3 = load ptr, ptr %2, align 8
  %4 = getelementptr inbounds nuw %"class.fmt::v11::detail::buffer", ptr %3, i32 0, i32 2
  %5 = load i64, ptr %4, align 8, !tbaa !91
  ret i64 %5
}

; Function Attrs: mustprogress nounwind uwtable
define linkonce_odr dso_local void @_ZN3fmt3v1117basic_string_viewIcEC2EPKcm(ptr noundef nonnull align 8 dereferenceable(16) %0, ptr noundef %1, i64 noundef %2) unnamed_addr #0 comdat align 2 {
  %4 = alloca ptr, align 8
  %5 = alloca ptr, align 8
  %6 = alloca i64, align 8
  store ptr %0, ptr %4, align 8, !tbaa !13
  store ptr %1, ptr %5, align 8, !tbaa !8
  store i64 %2, ptr %6, align 8, !tbaa !28
  %7 = load ptr, ptr %4, align 8
  %8 = getelementptr inbounds nuw %"class.fmt::v11::basic_string_view", ptr %7, i32 0, i32 0
  %9 = load ptr, ptr %5, align 8, !tbaa !8
  store ptr %9, ptr %8, align 8, !tbaa !95
  %10 = getelementptr inbounds nuw %"class.fmt::v11::basic_string_view", ptr %7, i32 0, i32 1
  %11 = load i64, ptr %6, align 8, !tbaa !28
  store i64 %11, ptr %10, align 8, !tbaa !96
  ret void
}

; Function Attrs: mustprogress nounwind uwtable
define linkonce_odr dso_local noundef i64 @_ZNK3fmt3v1117basic_string_viewIcE4sizeEv(ptr noundef nonnull align 8 dereferenceable(16) %0) #0 comdat align 2 {
  %2 = alloca ptr, align 8
  store ptr %0, ptr %2, align 8, !tbaa !13
  %3 = load ptr, ptr %2, align 8
  %4 = getelementptr inbounds nuw %"class.fmt::v11::basic_string_view", ptr %3, i32 0, i32 1
  %5 = load i64, ptr %4, align 8, !tbaa !96
  ret i64 %5
}

; Function Attrs: mustprogress nounwind uwtable
define linkonce_odr dso_local noundef ptr @_ZN3fmt3v116detail6bufferIcE4dataEv(ptr noundef nonnull align 8 dereferenceable(32) %0) #0 comdat align 2 {
  %2 = alloca ptr, align 8
  store ptr %0, ptr %2, align 8, !tbaa !87
  %3 = load ptr, ptr %2, align 8
  %4 = getelementptr inbounds nuw %"class.fmt::v11::detail::buffer", ptr %3, i32 0, i32 0
  %5 = load ptr, ptr %4, align 8, !tbaa !92
  ret ptr %5
}

; Function Attrs: mustprogress uwtable
define linkonce_odr dso_local void @_ZN3fmt3v1119basic_memory_bufferIcLm250ENS0_6detail9allocatorIcEEE4moveERS5_(ptr noundef nonnull align 8 dereferenceable(283) %0, ptr noundef nonnull align 8 dereferenceable(283) %1) #5 comdat align 2 {
  %3 = alloca ptr, align 8
  %4 = alloca ptr, align 8
  %5 = alloca ptr, align 8
  %6 = alloca i64, align 8
  %7 = alloca i64, align 8
  store ptr %0, ptr %3, align 8, !tbaa !24
  store ptr %1, ptr %4, align 8, !tbaa !24
  %8 = load ptr, ptr %3, align 8
  call void @llvm.lifetime.start.p0(i64 8, ptr %5) #13
  %9 = load ptr, ptr %4, align 8, !tbaa !24
  %10 = call noundef ptr @_ZN3fmt3v116detail6bufferIcE4dataEv(ptr noundef nonnull align 8 dereferenceable(32) %9) #13
  store ptr %10, ptr %5, align 8, !tbaa !8
  call void @llvm.lifetime.start.p0(i64 8, ptr %6) #13
  %11 = load ptr, ptr %4, align 8, !tbaa !24
  %12 = call noundef i64 @_ZNK3fmt3v116detail6bufferIcE4sizeEv(ptr noundef nonnull align 8 dereferenceable(32) %11) #13
  store i64 %12, ptr %6, align 8, !tbaa !28
  call void @llvm.lifetime.start.p0(i64 8, ptr %7) #13
  %13 = load ptr, ptr %4, align 8, !tbaa !24
  %14 = call noundef i64 @_ZNK3fmt3v116detail6bufferIcE8capacityEv(ptr noundef nonnull align 8 dereferenceable(32) %13) #13
  store i64 %14, ptr %7, align 8, !tbaa !28
  %15 = load ptr, ptr %5, align 8, !tbaa !8
  %16 = load ptr, ptr %4, align 8, !tbaa !24
  %17 = getelementptr inbounds nuw %"class.fmt::v11::basic_memory_buffer", ptr %16, i32 0, i32 1
  %18 = getelementptr inbounds [250 x i8], ptr %17, i64 0, i64 0
  %19 = icmp eq ptr %15, %18
  br i1 %19, label %20, label %35

20:                                               ; preds = %2
  %21 = getelementptr inbounds nuw %"class.fmt::v11::basic_memory_buffer", ptr %8, i32 0, i32 1
  %22 = getelementptr inbounds [250 x i8], ptr %21, i64 0, i64 0
  %23 = load i64, ptr %7, align 8, !tbaa !28
  call void @_ZN3fmt3v116detail6bufferIcE3setEPcm(ptr noundef nonnull align 8 dereferenceable(32) %8, ptr noundef %22, i64 noundef %23) #13
  %24 = load ptr, ptr %4, align 8, !tbaa !24
  %25 = getelementptr inbounds nuw %"class.fmt::v11::basic_memory_buffer", ptr %24, i32 0, i32 1
  %26 = getelementptr inbounds [250 x i8], ptr %25, i64 0, i64 0
  %27 = load ptr, ptr %4, align 8, !tbaa !24
  %28 = getelementptr inbounds nuw %"class.fmt::v11::basic_memory_buffer", ptr %27, i32 0, i32 1
  %29 = getelementptr inbounds [250 x i8], ptr %28, i64 0, i64 0
  %30 = load i64, ptr %6, align 8, !tbaa !28
  %31 = getelementptr inbounds nuw i8, ptr %29, i64 %30
  %32 = getelementptr inbounds nuw %"class.fmt::v11::basic_memory_buffer", ptr %8, i32 0, i32 1
  %33 = getelementptr inbounds [250 x i8], ptr %32, i64 0, i64 0
  %34 = call noundef ptr @_ZN3fmt3v116detail4copyIcPcS3_TnNSt9enable_ifIXntsr23is_back_insert_iteratorIT1_EE5valueEiE4typeELi0EEES5_T0_S8_S5_(ptr noundef %26, ptr noundef %31, ptr noundef %33)
  br label %43

35:                                               ; preds = %2
  %36 = load ptr, ptr %5, align 8, !tbaa !8
  %37 = load i64, ptr %7, align 8, !tbaa !28
  call void @_ZN3fmt3v116detail6bufferIcE3setEPcm(ptr noundef nonnull align 8 dereferenceable(32) %8, ptr noundef %36, i64 noundef %37) #13
  %38 = load ptr, ptr %4, align 8, !tbaa !24
  %39 = load ptr, ptr %4, align 8, !tbaa !24
  %40 = getelementptr inbounds nuw %"class.fmt::v11::basic_memory_buffer", ptr %39, i32 0, i32 1
  %41 = getelementptr inbounds [250 x i8], ptr %40, i64 0, i64 0
  call void @_ZN3fmt3v116detail6bufferIcE3setEPcm(ptr noundef nonnull align 8 dereferenceable(32) %38, ptr noundef %41, i64 noundef 0) #13
  %42 = load ptr, ptr %4, align 8, !tbaa !24
  call void @_ZN3fmt3v116detail6bufferIcE5clearEv(ptr noundef nonnull align 8 dereferenceable(32) %42)
  br label %43

43:                                               ; preds = %35, %20
  %44 = load i64, ptr %6, align 8, !tbaa !28
  call void @_ZN3fmt3v1119basic_memory_bufferIcLm250ENS0_6detail9allocatorIcEEE6resizeEm(ptr noundef nonnull align 8 dereferenceable(283) %8, i64 noundef %44)
  call void @llvm.lifetime.end.p0(i64 8, ptr %7) #13
  call void @llvm.lifetime.end.p0(i64 8, ptr %6) #13
  call void @llvm.lifetime.end.p0(i64 8, ptr %5) #13
  ret void
}

; Function Attrs: mustprogress nounwind uwtable
define linkonce_odr dso_local void @_ZN3fmt3v1119basic_memory_bufferIcLm250ENS0_6detail9allocatorIcEEE10deallocateEv(ptr noundef nonnull align 8 dereferenceable(283) %0) #0 comdat align 2 {
  %2 = alloca ptr, align 8
  %3 = alloca ptr, align 8
  store ptr %0, ptr %2, align 8, !tbaa !24
  %4 = load ptr, ptr %2, align 8
  call void @llvm.lifetime.start.p0(i64 8, ptr %3) #13
  %5 = call noundef ptr @_ZN3fmt3v116detail6bufferIcE4dataEv(ptr noundef nonnull align 8 dereferenceable(32) %4) #13
  store ptr %5, ptr %3, align 8, !tbaa !8
  %6 = load ptr, ptr %3, align 8, !tbaa !8
  %7 = getelementptr inbounds nuw %"class.fmt::v11::basic_memory_buffer", ptr %4, i32 0, i32 1
  %8 = getelementptr inbounds [250 x i8], ptr %7, i64 0, i64 0
  %9 = icmp ne ptr %6, %8
  br i1 %9, label %10, label %14

10:                                               ; preds = %1
  %11 = getelementptr inbounds i8, ptr %4, i64 282
  %12 = load ptr, ptr %3, align 8, !tbaa !8
  %13 = call noundef i64 @_ZNK3fmt3v116detail6bufferIcE8capacityEv(ptr noundef nonnull align 8 dereferenceable(32) %4) #13
  call void @_ZN3fmt3v116detail9allocatorIcE10deallocateEPcm(ptr noundef nonnull align 1 dereferenceable(1) %11, ptr noundef %12, i64 noundef %13)
  br label %14

14:                                               ; preds = %10, %1
  call void @llvm.lifetime.end.p0(i64 8, ptr %3) #13
  ret void
}

; Function Attrs: mustprogress nounwind uwtable
define linkonce_odr dso_local void @_ZN3fmt3v116detail13ignore_unusedIJbA1_cEEEvDpRKT_(ptr noundef nonnull align 1 dereferenceable(1) %0, ptr noundef nonnull align 1 dereferenceable(1) %1) #0 comdat {
  %3 = alloca ptr, align 8
  %4 = alloca ptr, align 8
  store ptr %0, ptr %3, align 8, !tbaa !656
  store ptr %1, ptr %4, align 8, !tbaa !8
  ret void
}

; Function Attrs: mustprogress nounwind uwtable
define dso_local void @_ZN6spdlog7details14log_msg_buffer19update_string_viewsEv(ptr noundef nonnull align 8 dereferenceable(384) %0) #0 align 2 {
  %2 = alloca ptr, align 8
  %3 = alloca %"class.fmt::v11::basic_string_view", align 8
  %4 = alloca %"class.fmt::v11::basic_string_view", align 8
  store ptr %0, ptr %2, align 8, !tbaa !60
  %5 = load ptr, ptr %2, align 8
  call void @llvm.lifetime.start.p0(i64 16, ptr %3) #13
  %6 = getelementptr inbounds nuw %"class.spdlog::details::log_msg_buffer", ptr %5, i32 0, i32 1
  %7 = call noundef ptr @_ZN3fmt3v116detail6bufferIcE4dataEv(ptr noundef nonnull align 8 dereferenceable(32) %6) #13
  %8 = getelementptr inbounds nuw %"struct.spdlog::details::log_msg", ptr %5, i32 0, i32 0
  %9 = call noundef i64 @_ZNK3fmt3v1117basic_string_viewIcE4sizeEv(ptr noundef nonnull align 8 dereferenceable(16) %8) #13
  call void @_ZN3fmt3v1117basic_string_viewIcEC2EPKcm(ptr noundef nonnull align 8 dereferenceable(16) %3, ptr noundef %7, i64 noundef %9) #13
  %10 = getelementptr inbounds nuw %"struct.spdlog::details::log_msg", ptr %5, i32 0, i32 0
  call void @llvm.memcpy.p0.p0.i64(ptr align 8 %10, ptr align 8 %3, i64 16, i1 false), !tbaa.struct !68
  call void @llvm.lifetime.end.p0(i64 16, ptr %3) #13
  call void @llvm.lifetime.start.p0(i64 16, ptr %4) #13
  %11 = getelementptr inbounds nuw %"class.spdlog::details::log_msg_buffer", ptr %5, i32 0, i32 1
  %12 = call noundef ptr @_ZN3fmt3v116detail6bufferIcE4dataEv(ptr noundef nonnull align 8 dereferenceable(32) %11) #13
  %13 = getelementptr inbounds nuw %"struct.spdlog::details::log_msg", ptr %5, i32 0, i32 0
  %14 = call noundef i64 @_ZNK3fmt3v1117basic_string_viewIcE4sizeEv(ptr noundef nonnull align 8 dereferenceable(16) %13) #13
  %15 = getelementptr inbounds nuw i8, ptr %12, i64 %14
  %16 = getelementptr inbounds nuw %"struct.spdlog::details::log_msg", ptr %5, i32 0, i32 7
  %17 = call noundef i64 @_ZNK3fmt3v1117basic_string_viewIcE4sizeEv(ptr noundef nonnull align 8 dereferenceable(16) %16) #13
  call void @_ZN3fmt3v1117basic_string_viewIcEC2EPKcm(ptr noundef nonnull align 8 dereferenceable(16) %4, ptr noundef %15, i64 noundef %17) #13
  %18 = getelementptr inbounds nuw %"struct.spdlog::details::log_msg", ptr %5, i32 0, i32 7
  call void @llvm.memcpy.p0.p0.i64(ptr align 8 %18, ptr align 8 %4, i64 16, i1 false), !tbaa.struct !68
  call void @llvm.lifetime.end.p0(i64 16, ptr %4) #13
  ret void
}

; Function Attrs: mustprogress nounwind uwtable
define linkonce_odr dso_local noundef nonnull align 8 dereferenceable(283) ptr @_ZN3fmt3v1119basic_memory_bufferIcLm250ENS0_6detail9allocatorIcEEEaSEOS5_(ptr noundef nonnull align 8 dereferenceable(283) %0, ptr noundef nonnull align 8 dereferenceable(283) %1) #0 comdat align 2 personality ptr @__gxx_personality_v0 {
  %3 = alloca ptr, align 8
  %4 = alloca ptr, align 8
  %5 = alloca i8, align 1
  store ptr %0, ptr %3, align 8, !tbaa !24
  store ptr %1, ptr %4, align 8, !tbaa !24
  %6 = load ptr, ptr %3, align 8
  call void @llvm.lifetime.start.p0(i64 1, ptr %5) #13
  %7 = load ptr, ptr %4, align 8, !tbaa !24
  %8 = icmp ne ptr %6, %7
  %9 = zext i1 %8 to i8
  store i8 %9, ptr %5, align 1, !tbaa !36
  call void @_ZN3fmt3v116detail13ignore_unusedIJbA1_cEEEvDpRKT_(ptr noundef nonnull align 1 dereferenceable(1) %5, ptr noundef nonnull align 1 dereferenceable(1) @.str.5)
  call void @llvm.lifetime.end.p0(i64 1, ptr %5) #13
  call void @_ZN3fmt3v1119basic_memory_bufferIcLm250ENS0_6detail9allocatorIcEEE10deallocateEv(ptr noundef nonnull align 8 dereferenceable(283) %6)
  %10 = load ptr, ptr %4, align 8, !tbaa !24
  invoke void @_ZN3fmt3v1119basic_memory_bufferIcLm250ENS0_6detail9allocatorIcEEE4moveERS5_(ptr noundef nonnull align 8 dereferenceable(283) %6, ptr noundef nonnull align 8 dereferenceable(283) %10)
          to label %11 unwind label %12

11:                                               ; preds = %2
  ret ptr %6

12:                                               ; preds = %2
  %13 = landingpad { ptr, i32 }
          catch ptr null
  %14 = extractvalue { ptr, i32 } %13, 0
  call void @__clang_call_terminate(ptr %14) #27
  unreachable
}

; Function Attrs: mustprogress nounwind uwtable
define dso_local noundef nonnull align 8 dereferenceable(384) ptr @_ZN6spdlog7details14log_msg_bufferaSEOS1_(ptr noundef nonnull align 8 dereferenceable(384) %0, ptr noundef nonnull align 8 dereferenceable(384) %1) #0 align 2 personality ptr @__gxx_personality_v0 {
  %3 = alloca ptr, align 8
  %4 = alloca ptr, align 8
  store ptr %0, ptr %3, align 8, !tbaa !60
  store ptr %1, ptr %4, align 8, !tbaa !60
  %5 = load ptr, ptr %3, align 8
  %6 = load ptr, ptr %4, align 8, !tbaa !60
  call void @llvm.memcpy.p0.p0.i64(ptr align 8 %5, ptr align 8 %6, i64 96, i1 false), !tbaa.struct !86
  %7 = load ptr, ptr %4, align 8, !tbaa !60
  %8 = getelementptr inbounds nuw %"class.spdlog::details::log_msg_buffer", ptr %7, i32 0, i32 1
  %9 = getelementptr inbounds nuw %"class.spdlog::details::log_msg_buffer", ptr %5, i32 0, i32 1
  %10 = call noundef nonnull align 8 dereferenceable(283) ptr @_ZN3fmt3v1119basic_memory_bufferIcLm250ENS0_6detail9allocatorIcEEEaSEOS5_(ptr noundef nonnull align 8 dereferenceable(283) %9, ptr noundef nonnull align 8 dereferenceable(283) %8) #13
  invoke void @_ZN6spdlog7details14log_msg_buffer19update_string_viewsEv(ptr noundef nonnull align 8 dereferenceable(384) %5)
          to label %11 unwind label %12

11:                                               ; preds = %2
  ret ptr %5

12:                                               ; preds = %2
  %13 = landingpad { ptr, i32 }
          catch ptr null
  %14 = extractvalue { ptr, i32 } %13, 0
  call void @__clang_call_terminate(ptr %14) #27
  unreachable
}