; Function Attrs: mustprogress nounwind uwtable
define dso_local noundef nonnull align 8 dereferenceable(384) ptr @_ZN6spdlog7details14log_msg_bufferaSEOS1_(ptr noundef nonnull returned align 8 dereferenceable(384) initializes((0, 96)) %0, ptr noundef nonnull align 8 dereferenceable(384) %1) local_unnamed_addr #1 align 2 personality ptr @__gxx_personality_v0 {
  tail call void @llvm.memcpy.p0.p0.i64(ptr noundef nonnull align 8 dereferenceable(96) %0, ptr noundef nonnull align 8 dereferenceable(96) %1, i64 96, i1 false), !tbaa.struct !52
  %3 = getelementptr inbounds nuw i8, ptr %1, i64 96
  %4 = getelementptr inbounds nuw i8, ptr %0, i64 96
  %5 = load ptr, ptr %4, align 8, !tbaa !20
  %6 = getelementptr inbounds nuw i8, ptr %0, i64 128
  %.not.i.i = icmp eq ptr %5, %6
  br i1 %.not.i.i, label %_ZN3fmt3v1119basic_memory_bufferIcLm250ENS0_6detail9allocatorIcEEE10deallocateEv.exit.i, label %7

7:                                                ; preds = %2
  tail call void @free(ptr noundef %5) #37
  br label %_ZN3fmt3v1119basic_memory_bufferIcLm250ENS0_6detail9allocatorIcEEE10deallocateEv.exit.i

_ZN3fmt3v1119basic_memory_bufferIcLm250ENS0_6detail9allocatorIcEEE10deallocateEv.exit.i: ; preds = %7, %2
  %8 = load ptr, ptr %3, align 8, !tbaa !20
  %9 = getelementptr inbounds nuw i8, ptr %1, i64 104
  %10 = load i64, ptr %9, align 8, !tbaa !25
  %11 = getelementptr inbounds nuw i8, ptr %1, i64 112
  %12 = load i64, ptr %11, align 8, !tbaa !21
  %.ptr.i.i = getelementptr inbounds nuw i8, ptr %1, i64 128
  %13 = icmp eq ptr %8, %.ptr.i.i
  %14 = getelementptr inbounds nuw i8, ptr %0, i64 112
  br i1 %13, label %15, label %20

15:                                               ; preds = %_ZN3fmt3v1119basic_memory_bufferIcLm250ENS0_6detail9allocatorIcEEE10deallocateEv.exit.i
  store ptr %6, ptr %4, align 8, !tbaa !20
  store i64 %12, ptr %14, align 8, !tbaa !21
  %16 = getelementptr i8, ptr %3, i64 %10
  %.ptr16.i.i = getelementptr i8, ptr %16, i64 32
  %.not6.i.i.i = icmp eq i64 %10, 0
  br i1 %.not6.i.i.i, label %_ZN3fmt3v116detail4copyIcPcS3_TnNSt9enable_ifIXntsr23is_back_insert_iteratorIT1_EE5valueEiE4typeELi0EEES5_T0_S8_S5_.exit.i.i, label %.lr.ph.i.i.i

.lr.ph.i.i.i:                                     ; preds = %15, %.lr.ph.i.i.i
  %.08.i.i.i = phi ptr [ %19, %.lr.ph.i.i.i ], [ %6, %15 ]
  %.057.i.i.i = phi ptr [ %17, %.lr.ph.i.i.i ], [ %.ptr.i.i, %15 ]
  %17 = getelementptr inbounds nuw i8, ptr %.057.i.i.i, i64 1
  %18 = load i8, ptr %.057.i.i.i, align 1, !tbaa !17
  %19 = getelementptr inbounds nuw i8, ptr %.08.i.i.i, i64 1
  store i8 %18, ptr %.08.i.i.i, align 1, !tbaa !17
  %.not.i.i.i = icmp eq ptr %17, %.ptr16.i.i
  br i1 %.not.i.i.i, label %_ZN3fmt3v116detail4copyIcPcS3_TnNSt9enable_ifIXntsr23is_back_insert_iteratorIT1_EE5valueEiE4typeELi0EEES5_T0_S8_S5_.exit.i.i, label %.lr.ph.i.i.i, !llvm.loop !55

20:                                               ; preds = %_ZN3fmt3v1119basic_memory_bufferIcLm250ENS0_6detail9allocatorIcEEE10deallocateEv.exit.i
  store ptr %8, ptr %4, align 8, !tbaa !20
  store i64 %12, ptr %14, align 8, !tbaa !21
  store ptr %.ptr.i.i, ptr %3, align 8, !tbaa !20
  tail call void @llvm.memset.p0.i64(ptr noundef nonnull align 8 dereferenceable(16) %9, i8 0, i64 16, i1 false)
  br label %_ZN3fmt3v116detail4copyIcPcS3_TnNSt9enable_ifIXntsr23is_back_insert_iteratorIT1_EE5valueEiE4typeELi0EEES5_T0_S8_S5_.exit.i.i

_ZN3fmt3v116detail4copyIcPcS3_TnNSt9enable_ifIXntsr23is_back_insert_iteratorIT1_EE5valueEiE4typeELi0EEES5_T0_S8_S5_.exit.i.i: ; preds = %.lr.ph.i.i.i, %20, %15
  %21 = load i64, ptr %14, align 8, !tbaa !21
  %22 = icmp ugt i64 %10, %21
  br i1 %22, label %23, label %_ZN3fmt3v1119basic_memory_bufferIcLm250ENS0_6detail9allocatorIcEEEaSEOS5_.exit

23:                                               ; preds = %_ZN3fmt3v116detail4copyIcPcS3_TnNSt9enable_ifIXntsr23is_back_insert_iteratorIT1_EE5valueEiE4typeELi0EEES5_T0_S8_S5_.exit.i.i
  %24 = getelementptr inbounds nuw i8, ptr %0, i64 120
  %25 = load ptr, ptr %24, align 8, !tbaa !18
  invoke void %25(ptr noundef nonnull align 8 dereferenceable(283) %4, i64 noundef %10)
          to label %.noexc.i unwind label %26

.noexc.i:                                         ; preds = %23
  %.pre.i.i.i.i = load i64, ptr %14, align 8, !tbaa !21
  br label %_ZN3fmt3v1119basic_memory_bufferIcLm250ENS0_6detail9allocatorIcEEEaSEOS5_.exit

26:                                               ; preds = %23
  %27 = landingpad { ptr, i32 }
          catch ptr null
  %28 = extractvalue { ptr, i32 } %27, 0
  tail call void @__clang_call_terminate(ptr %28) #42
  unreachable

_ZN3fmt3v1119basic_memory_bufferIcLm250ENS0_6detail9allocatorIcEEEaSEOS5_.exit: ; preds = %_ZN3fmt3v116detail4copyIcPcS3_TnNSt9enable_ifIXntsr23is_back_insert_iteratorIT1_EE5valueEiE4typeELi0EEES5_T0_S8_S5_.exit.i.i, %.noexc.i
  %29 = phi i64 [ %21, %_ZN3fmt3v116detail4copyIcPcS3_TnNSt9enable_ifIXntsr23is_back_insert_iteratorIT1_EE5valueEiE4typeELi0EEES5_T0_S8_S5_.exit.i.i ], [ %.pre.i.i.i.i, %.noexc.i ]
  %30 = tail call noundef i64 @llvm.umin.i64(i64 %10, i64 %29)
  %31 = getelementptr inbounds nuw i8, ptr %0, i64 104
  store i64 %30, ptr %31, align 8, !tbaa !25
  %32 = load ptr, ptr %4, align 8, !tbaa !20
  %33 = getelementptr inbounds nuw i8, ptr %0, i64 8
  %34 = load i64, ptr %33, align 8, !tbaa !56
  store ptr %32, ptr %0, align 8, !tbaa !4
  %35 = getelementptr inbounds nuw i8, ptr %32, i64 %34
  %36 = getelementptr inbounds nuw i8, ptr %0, i64 80
  store ptr %35, ptr %36, align 8, !tbaa !4
  ret ptr %0
}